; ModuleID = '35/1379.c'
source_filename = "35/1379.c"
target datalayout = "e-m:e-p270:32:32-p271:32:32-p272:64:64-i64:64-f80:128-n8:16:32:64-S128"
target triple = "x86_64-pc-linux-gnu"

@.str = private unnamed_addr constant [6 x i8] c"%d,%d\00", align 1
@.str.1 = private unnamed_addr constant [3 x i8] c"%d\00", align 1
@.str.2 = private unnamed_addr constant [4 x i8] c" %d\00", align 1
@.str.3 = private unnamed_addr constant [6 x i8] c"%d+%d\00", align 1
@.str.4 = private unnamed_addr constant [3 x i8] c"No\00", align 1

; Function Attrs: noinline nounwind uwtable
define dso_local void @main() #0 {
  %1 = alloca i32, align 4
  %2 = alloca i32, align 4
  %3 = alloca [9 x [9 x i32]], align 16
  %4 = alloca i32, align 4
  %5 = alloca i32, align 4
  %6 = alloca [9 x i32], align 16
  %7 = alloca [9 x i32], align 16
  %8 = alloca i32, align 4
  %9 = alloca i32, align 4
  %10 = alloca i32, align 4
  %11 = alloca i32, align 4
  %12 = alloca i32, align 4
  %13 = call i32 (i8*, ...) @__isoc99_scanf(i8* getelementptr inbounds ([6 x i8], [6 x i8]* @.str, i64 0, i64 0), i32* %1, i32* %2)
  %14 = bitcast [9 x [9 x i32]]* %3 to i8*
  call void @llvm.memset.p0i8.i64(i8* align 16 %14, i8 0, i64 324, i1 false)
  store i32 0, i32* %4, align 4
  store i32 0, i32* %4, align 4
  br label %15

15:                                               ; preds = %48, %0
  %16 = load i32, i32* %4, align 4
  %17 = load i32, i32* %1, align 4
  %18 = icmp slt i32 %16, %17
  br i1 %18, label %19, label %51

19:                                               ; preds = %15
  store i32 0, i32* %5, align 4
  store i32 0, i32* %5, align 4
  br label %20

20:                                               ; preds = %44, %19
  %21 = load i32, i32* %5, align 4
  %22 = load i32, i32* %2, align 4
  %23 = icmp slt i32 %21, %22
  br i1 %23, label %24, label %47

24:                                               ; preds = %20
  %25 = load i32, i32* %5, align 4
  %26 = icmp eq i32 %25, 0
  br i1 %26, label %27, label %35

27:                                               ; preds = %24
  %28 = load i32, i32* %4, align 4
  %29 = sext i32 %28 to i64
  %30 = getelementptr inbounds [9 x [9 x i32]], [9 x [9 x i32]]* %3, i64 0, i64 %29
  %31 = load i32, i32* %5, align 4
  %32 = sext i32 %31 to i64
  %33 = getelementptr inbounds [9 x i32], [9 x i32]* %30, i64 0, i64 %32
  %34 = call i32 (i8*, ...) @__isoc99_scanf(i8* getelementptr inbounds ([3 x i8], [3 x i8]* @.str.1, i64 0, i64 0), i32* %33)
  br label %43

35:                                               ; preds = %24
  %36 = load i32, i32* %4, align 4
  %37 = sext i32 %36 to i64
  %38 = getelementptr inbounds [9 x [9 x i32]], [9 x [9 x i32]]* %3, i64 0, i64 %37
  %39 = load i32, i32* %5, align 4
  %40 = sext i32 %39 to i64
  %41 = getelementptr inbounds [9 x i32], [9 x i32]* %38, i64 0, i64 %40
  %42 = call i32 (i8*, ...) @__isoc99_scanf(i8* getelementptr inbounds ([4 x i8], [4 x i8]* @.str.2, i64 0, i64 0), i32* %41)
  br label %43

43:                                               ; preds = %35, %27
  br label %44

44:                                               ; preds = %43
  %45 = load i32, i32* %5, align 4
  %46 = add nsw i32 %45, 1
  store i32 %46, i32* %5, align 4
  br label %20

47:                                               ; preds = %20
  br label %48

48:                                               ; preds = %47
  %49 = load i32, i32* %4, align 4
  %50 = add nsw i32 %49, 1
  store i32 %50, i32* %4, align 4
  br label %15

51:                                               ; preds = %15
  %52 = bitcast [9 x i32]* %6 to i8*
  call void @llvm.memset.p0i8.i64(i8* align 16 %52, i8 0, i64 36, i1 false)
  %53 = bitcast [9 x i32]* %7 to i8*
  call void @llvm.memset.p0i8.i64(i8* align 16 %53, i8 0, i64 36, i1 false)
  store i32 0, i32* %8, align 4
  store i32 0, i32* %9, align 4
  store i32 0, i32* %8, align 4
  br label %54

54:                                               ; preds = %164, %51
  %55 = load i32, i32* %8, align 4
  %56 = load i32, i32* %1, align 4
  %57 = icmp slt i32 %55, %56
  br i1 %57, label %58, label %167

58:                                               ; preds = %54
  %59 = load i32, i32* %8, align 4
  %60 = sext i32 %59 to i64
  %61 = getelementptr inbounds [9 x [9 x i32]], [9 x [9 x i32]]* %3, i64 0, i64 %60
  %62 = getelementptr inbounds [9 x i32], [9 x i32]* %61, i64 0, i64 0
  %63 = load i32, i32* %62, align 4
  %64 = load i32, i32* %8, align 4
  %65 = sext i32 %64 to i64
  %66 = getelementptr inbounds [9 x i32], [9 x i32]* %6, i64 0, i64 %65
  store i32 %63, i32* %66, align 4
  store i32 0, i32* %10, align 4
  store i32 0, i32* %10, align 4
  br label %67

67:                                               ; preds = %97, %58
  %68 = load i32, i32* %10, align 4
  %69 = load i32, i32* %2, align 4
  %70 = icmp slt i32 %68, %69
  br i1 %70, label %71, label %100

71:                                               ; preds = %67
  %72 = load i32, i32* %8, align 4
  %73 = sext i32 %72 to i64
  %74 = getelementptr inbounds [9 x i32], [9 x i32]* %6, i64 0, i64 %73
  %75 = load i32, i32* %74, align 4
  %76 = load i32, i32* %8, align 4
  %77 = sext i32 %76 to i64
  %78 = getelementptr inbounds [9 x [9 x i32]], [9 x [9 x i32]]* %3, i64 0, i64 %77
  %79 = load i32, i32* %10, align 4
  %80 = sext i32 %79 to i64
  %81 = getelementptr inbounds [9 x i32], [9 x i32]* %78, i64 0, i64 %80
  %82 = load i32, i32* %81, align 4
  %83 = icmp slt i32 %75, %82
  br i1 %83, label %84, label %96

84:                                               ; preds = %71
  %85 = load i32, i32* %8, align 4
  %86 = sext i32 %85 to i64
  %87 = getelementptr inbounds [9 x [9 x i32]], [9 x [9 x i32]]* %3, i64 0, i64 %86
  %88 = load i32, i32* %10, align 4
  %89 = sext i32 %88 to i64
  %90 = getelementptr inbounds [9 x i32], [9 x i32]* %87, i64 0, i64 %89
  %91 = load i32, i32* %90, align 4
  %92 = load i32, i32* %8, align 4
  %93 = sext i32 %92 to i64
  %94 = getelementptr inbounds [9 x i32], [9 x i32]* %6, i64 0, i64 %93
  store i32 %91, i32* %94, align 4
  %95 = load i32, i32* %10, align 4
  store i32 %95, i32* %9, align 4
  br label %96

96:                                               ; preds = %84, %71
  br label %97

97:                                               ; preds = %96
  %98 = load i32, i32* %10, align 4
  %99 = add nsw i32 %98, 1
  store i32 %99, i32* %10, align 4
  br label %67

100:                                              ; preds = %67
  %101 = load i32, i32* %8, align 4
  %102 = sext i32 %101 to i64
  %103 = getelementptr inbounds [9 x i32], [9 x i32]* %6, i64 0, i64 %102
  %104 = load i32, i32* %103, align 4
  %105 = load i32, i32* %8, align 4
  %106 = sext i32 %105 to i64
  %107 = getelementptr inbounds [9 x i32], [9 x i32]* %7, i64 0, i64 %106
  store i32 %104, i32* %107, align 4
  store i32 0, i32* %11, align 4
  store i32 0, i32* %12, align 4
  store i32 0, i32* %11, align 4
  br label %108

108:                                              ; preds = %138, %100
  %109 = load i32, i32* %11, align 4
  %110 = load i32, i32* %1, align 4
  %111 = icmp slt i32 %109, %110
  br i1 %111, label %112, label %141

112:                                              ; preds = %108
  %113 = load i32, i32* %8, align 4
  %114 = sext i32 %113 to i64
  %115 = getelementptr inbounds [9 x i32], [9 x i32]* %7, i64 0, i64 %114
  %116 = load i32, i32* %115, align 4
  %117 = load i32, i32* %11, align 4
  %118 = sext i32 %117 to i64
  %119 = getelementptr inbounds [9 x [9 x i32]], [9 x [9 x i32]]* %3, i64 0, i64 %118
  %120 = load i32, i32* %9, align 4
  %121 = sext i32 %120 to i64
  %122 = getelementptr inbounds [9 x i32], [9 x i32]* %119, i64 0, i64 %121
  %123 = load i32, i32* %122, align 4
  %124 = icmp sgt i32 %116, %123
  br i1 %124, label %125, label %137

125:                                              ; preds = %112
  %126 = load i32, i32* %11, align 4
  %127 = sext i32 %126 to i64
  %128 = getelementptr inbounds [9 x [9 x i32]], [9 x [9 x i32]]* %3, i64 0, i64 %127
  %129 = load i32, i32* %9, align 4
  %130 = sext i32 %129 to i64
  %131 = getelementptr inbounds [9 x i32], [9 x i32]* %128, i64 0, i64 %130
  %132 = load i32, i32* %131, align 4
  %133 = load i32, i32* %8, align 4
  %134 = sext i32 %133 to i64
  %135 = getelementptr inbounds [9 x i32], [9 x i32]* %7, i64 0, i64 %134
  store i32 %132, i32* %135, align 4
  %136 = load i32, i32* %11, align 4
  store i32 %136, i32* %12, align 4
  br label %137

137:                                              ; preds = %125, %112
  br label %138

138:                                              ; preds = %137
  %139 = load i32, i32* %11, align 4
  %140 = add nsw i32 %139, 1
  store i32 %140, i32* %11, align 4
  br label %108

141:                                              ; preds = %108
  %142 = load i32, i32* %8, align 4
  %143 = sext i32 %142 to i64
  %144 = getelementptr inbounds [9 x i32], [9 x i32]* %6, i64 0, i64 %143
  %145 = load i32, i32* %144, align 4
  %146 = load i32, i32* %8, align 4
  %147 = sext i32 %146 to i64
  %148 = getelementptr inbounds [9 x i32], [9 x i32]* %7, i64 0, i64 %147
  %149 = load i32, i32* %148, align 4
  %150 = icmp eq i32 %145, %149
  br i1 %150, label %151, label %155

151:                                              ; preds = %141
  %152 = load i32, i32* %12, align 4
  %153 = load i32, i32* %9, align 4
  %154 = call i32 (i8*, ...) @printf(i8* getelementptr inbounds ([6 x i8], [6 x i8]* @.str.3, i64 0, i64 0), i32 %152, i32 %153)
  br label %167

155:                                              ; preds = %141
  %156 = load i32, i32* %8, align 4
  %157 = load i32, i32* %1, align 4
  %158 = sub nsw i32 %157, 1
  %159 = icmp eq i32 %156, %158
  br i1 %159, label %160, label %162

160:                                              ; preds = %155
  %161 = call i32 (i8*, ...) @printf(i8* getelementptr inbounds ([3 x i8], [3 x i8]* @.str.4, i64 0, i64 0))
  br label %162

162:                                              ; preds = %160, %155
  br label %163

163:                                              ; preds = %162
  br label %164

164:                                              ; preds = %163
  %165 = load i32, i32* %8, align 4
  %166 = add nsw i32 %165, 1
  store i32 %166, i32* %8, align 4
  br label %54

167:                                              ; preds = %151, %54
  ret void
}

declare dso_local i32 @__isoc99_scanf(i8*, ...) #1

; Function Attrs: argmemonly nounwind willreturn
declare void @llvm.memset.p0i8.i64(i8* nocapture writeonly, i8, i64, i1 immarg) #2

declare dso_local i32 @printf(i8*, ...) #1


!llvm.module.flags = !{!0}
!llvm.ident = !{!1}

!0 = !{i32 1, !"wchar_size", i32 4}
!1 = !{!"clang version 10.0.0-4ubuntu1 "}
